; ModuleID = '20/62.c'
source_filename = "20/62.c"
target datalayout = "e-m:e-p270:32:32-p271:32:32-p272:64:64-i64:64-f80:128-n8:16:32:64-S128"
target triple = "x86_64-pc-linux-gnu"

@.str = private unnamed_addr constant [6 x i8] c"%s %s\00", align 1
@.str.1 = private unnamed_addr constant [4 x i8] c"%s\0A\00", align 1

; Function Attrs: noinline nounwind uwtable
define dso_local void @main() #0 {
  %1 = alloca i32, align 4
  %2 = alloca i32, align 4
  %3 = alloca i32, align 4
  %4 = alloca [10 x i32], align 16
  %5 = alloca [10 x [100 x i8]], align 16
  %6 = alloca [10 x [3 x i8]], align 16
  %7 = alloca i8, align 1
  store i32 0, i32* %1, align 4
  %8 = bitcast [10 x i32]* %4 to i8*
  call void @llvm.memset.p0i8.i64(i8* align 16 %8, i8 0, i64 40, i1 false)
  %9 = bitcast [10 x [100 x i8]]* %5 to i8*
  call void @llvm.memset.p0i8.i64(i8* align 16 %9, i8 0, i64 1000, i1 false)
  %10 = bitcast [10 x [3 x i8]]* %6 to i8*
  call void @llvm.memset.p0i8.i64(i8* align 16 %10, i8 0, i64 30, i1 false)
  store i32 0, i32* %1, align 4
  br label %11

11:                                               ; preds = %24, %0
  %12 = load i32, i32* %1, align 4
  %13 = sext i32 %12 to i64
  %14 = getelementptr inbounds [10 x [100 x i8]], [10 x [100 x i8]]* %5, i64 0, i64 %13
  %15 = getelementptr inbounds [100 x i8], [100 x i8]* %14, i64 0, i64 0
  %16 = load i32, i32* %1, align 4
  %17 = sext i32 %16 to i64
  %18 = getelementptr inbounds [10 x [3 x i8]], [10 x [3 x i8]]* %6, i64 0, i64 %17
  %19 = getelementptr inbounds [3 x i8], [3 x i8]* %18, i64 0, i64 0
  %20 = call i32 (i8*, ...) @__isoc99_scanf(i8* getelementptr inbounds ([6 x i8], [6 x i8]* @.str, i64 0, i64 0), i8* %15, i8* %19)
  %21 = icmp eq i32 -1, %20
  br i1 %21, label %22, label %23

22:                                               ; preds = %11
  br label %27

23:                                               ; preds = %11
  br label %24

24:                                               ; preds = %23
  %25 = load i32, i32* %1, align 4
  %26 = add nsw i32 %25, 1
  store i32 %26, i32* %1, align 4
  br label %11

27:                                               ; preds = %22
  store i32 0, i32* %2, align 4
  br label %28

28:                                               ; preds = %80, %27
  %29 = load i32, i32* %2, align 4
  %30 = load i32, i32* %1, align 4
  %31 = icmp slt i32 %29, %30
  br i1 %31, label %32, label %83

32:                                               ; preds = %28
  store i32 0, i32* %3, align 4
  %33 = load i32, i32* %2, align 4
  %34 = sext i32 %33 to i64
  %35 = getelementptr inbounds [10 x [100 x i8]], [10 x [100 x i8]]* %5, i64 0, i64 %34
  %36 = getelementptr inbounds [100 x i8], [100 x i8]* %35, i64 0, i64 0
  %37 = load i8, i8* %36, align 4
  store i8 %37, i8* %7, align 1
  br label %38

38:                                               ; preds = %76, %32
  %39 = load i32, i32* %3, align 4
  %40 = sext i32 %39 to i64
  %41 = load i32, i32* %2, align 4
  %42 = sext i32 %41 to i64
  %43 = getelementptr inbounds [10 x [100 x i8]], [10 x [100 x i8]]* %5, i64 0, i64 %42
  %44 = getelementptr inbounds [100 x i8], [100 x i8]* %43, i64 0, i64 0
  %45 = call i64 @strlen(i8* %44) #4
  %46 = sub i64 %45, 1
  %47 = icmp ult i64 %40, %46
  br i1 %47, label %48, label %79

48:                                               ; preds = %38
  %49 = load i8, i8* %7, align 1
  %50 = sext i8 %49 to i32
  %51 = load i32, i32* %2, align 4
  %52 = sext i32 %51 to i64
  %53 = getelementptr inbounds [10 x [100 x i8]], [10 x [100 x i8]]* %5, i64 0, i64 %52
  %54 = load i32, i32* %3, align 4
  %55 = add nsw i32 %54, 1
  %56 = sext i32 %55 to i64
  %57 = getelementptr inbounds [100 x i8], [100 x i8]* %53, i64 0, i64 %56
  %58 = load i8, i8* %57, align 1
  %59 = sext i8 %58 to i32
  %60 = icmp slt i32 %50, %59
  br i1 %60, label %61, label %75

61:                                               ; preds = %48
  %62 = load i32, i32* %3, align 4
  %63 = add nsw i32 %62, 1
  %64 = load i32, i32* %2, align 4
  %65 = sext i32 %64 to i64
  %66 = getelementptr inbounds [10 x i32], [10 x i32]* %4, i64 0, i64 %65
  store i32 %63, i32* %66, align 4
  %67 = load i32, i32* %2, align 4
  %68 = sext i32 %67 to i64
  %69 = getelementptr inbounds [10 x [100 x i8]], [10 x [100 x i8]]* %5, i64 0, i64 %68
  %70 = load i32, i32* %3, align 4
  %71 = add nsw i32 %70, 1
  %72 = sext i32 %71 to i64
  %73 = getelementptr inbounds [100 x i8], [100 x i8]* %69, i64 0, i64 %72
  %74 = load i8, i8* %73, align 1
  store i8 %74, i8* %7, align 1
  br label %75

75:                                               ; preds = %61, %48
  br label %76

76:                                               ; preds = %75
  %77 = load i32, i32* %3, align 4
  %78 = add nsw i32 %77, 1
  store i32 %78, i32* %3, align 4
  br label %38

79:                                               ; preds = %38
  br label %80

80:                                               ; preds = %79
  %81 = load i32, i32* %2, align 4
  %82 = add nsw i32 %81, 1
  store i32 %82, i32* %2, align 4
  br label %28

83:                                               ; preds = %28
  store i32 0, i32* %2, align 4
  br label %84

84:                                               ; preds = %167, %83
  %85 = load i32, i32* %2, align 4
  %86 = load i32, i32* %1, align 4
  %87 = icmp slt i32 %85, %86
  br i1 %87, label %88, label %170

88:                                               ; preds = %84
  %89 = load i32, i32* %2, align 4
  %90 = sext i32 %89 to i64
  %91 = getelementptr inbounds [10 x [100 x i8]], [10 x [100 x i8]]* %5, i64 0, i64 %90
  %92 = getelementptr inbounds [100 x i8], [100 x i8]* %91, i64 0, i64 0
  %93 = call i64 @strlen(i8* %92) #4
  %94 = sub i64 %93, 1
  %95 = trunc i64 %94 to i32
  store i32 %95, i32* %3, align 4
  br label %96

96:                                               ; preds = %118, %88
  %97 = load i32, i32* %3, align 4
  %98 = load i32, i32* %2, align 4
  %99 = sext i32 %98 to i64
  %100 = getelementptr inbounds [10 x i32], [10 x i32]* %4, i64 0, i64 %99
  %101 = load i32, i32* %100, align 4
  %102 = icmp sgt i32 %97, %101
  br i1 %102, label %103, label %121

103:                                              ; preds = %96
  %104 = load i32, i32* %2, align 4
  %105 = sext i32 %104 to i64
  %106 = getelementptr inbounds [10 x [100 x i8]], [10 x [100 x i8]]* %5, i64 0, i64 %105
  %107 = load i32, i32* %3, align 4
  %108 = sext i32 %107 to i64
  %109 = getelementptr inbounds [100 x i8], [100 x i8]* %106, i64 0, i64 %108
  %110 = load i8, i8* %109, align 1
  %111 = load i32, i32* %2, align 4
  %112 = sext i32 %111 to i64
  %113 = getelementptr inbounds [10 x [100 x i8]], [10 x [100 x i8]]* %5, i64 0, i64 %112
  %114 = load i32, i32* %3, align 4
  %115 = add nsw i32 %114, 3
  %116 = sext i32 %115 to i64
  %117 = getelementptr inbounds [100 x i8], [100 x i8]* %113, i64 0, i64 %116
  store i8 %110, i8* %117, align 1
  br label %118

118:                                              ; preds = %103
  %119 = load i32, i32* %3, align 4
  %120 = add nsw i32 %119, -1
  store i32 %120, i32* %3, align 4
  br label %96

121:                                              ; preds = %96
  %122 = load i32, i32* %2, align 4
  %123 = sext i32 %122 to i64
  %124 = getelementptr inbounds [10 x [3 x i8]], [10 x [3 x i8]]* %6, i64 0, i64 %123
  %125 = getelementptr inbounds [3 x i8], [3 x i8]* %124, i64 0, i64 0
  %126 = load i8, i8* %125, align 1
  %127 = load i32, i32* %2, align 4
  %128 = sext i32 %127 to i64
  %129 = getelementptr inbounds [10 x [100 x i8]], [10 x [100 x i8]]* %5, i64 0, i64 %128
  %130 = load i32, i32* %2, align 4
  %131 = sext i32 %130 to i64
  %132 = getelementptr inbounds [10 x i32], [10 x i32]* %4, i64 0, i64 %131
  %133 = load i32, i32* %132, align 4
  %134 = add nsw i32 %133, 1
  %135 = sext i32 %134 to i64
  %136 = getelementptr inbounds [100 x i8], [100 x i8]* %129, i64 0, i64 %135
  store i8 %126, i8* %136, align 1
  %137 = load i32, i32* %2, align 4
  %138 = sext i32 %137 to i64
  %139 = getelementptr inbounds [10 x [3 x i8]], [10 x [3 x i8]]* %6, i64 0, i64 %138
  %140 = getelementptr inbounds [3 x i8], [3 x i8]* %139, i64 0, i64 1
  %141 = load i8, i8* %140, align 1
  %142 = load i32, i32* %2, align 4
  %143 = sext i32 %142 to i64
  %144 = getelementptr inbounds [10 x [100 x i8]], [10 x [100 x i8]]* %5, i64 0, i64 %143
  %145 = load i32, i32* %2, align 4
  %146 = sext i32 %145 to i64
  %147 = getelementptr inbounds [10 x i32], [10 x i32]* %4, i64 0, i64 %146
  %148 = load i32, i32* %147, align 4
  %149 = add nsw i32 %148, 2
  %150 = sext i32 %149 to i64
  %151 = getelementptr inbounds [100 x i8], [100 x i8]* %144, i64 0, i64 %150
  store i8 %141, i8* %151, align 1
  %152 = load i32, i32* %2, align 4
  %153 = sext i32 %152 to i64
  %154 = getelementptr inbounds [10 x [3 x i8]], [10 x [3 x i8]]* %6, i64 0, i64 %153
  %155 = getelementptr inbounds [3 x i8], [3 x i8]* %154, i64 0, i64 2
  %156 = load i8, i8* %155, align 1
  %157 = load i32, i32* %2, align 4
  %158 = sext i32 %157 to i64
  %159 = getelementptr inbounds [10 x [100 x i8]], [10 x [100 x i8]]* %5, i64 0, i64 %158
  %160 = load i32, i32* %2, align 4
  %161 = sext i32 %160 to i64
  %162 = getelementptr inbounds [10 x i32], [10 x i32]* %4, i64 0, i64 %161
  %163 = load i32, i32* %162, align 4
  %164 = add nsw i32 %163, 3
  %165 = sext i32 %164 to i64
  %166 = getelementptr inbounds [100 x i8], [100 x i8]* %159, i64 0, i64 %165
  store i8 %156, i8* %166, align 1
  br label %167

167:                                              ; preds = %121
  %168 = load i32, i32* %2, align 4
  %169 = add nsw i32 %168, 1
  store i32 %169, i32* %2, align 4
  br label %84

170:                                              ; preds = %84
  store i32 0, i32* %2, align 4
  br label %171

171:                                              ; preds = %181, %170
  %172 = load i32, i32* %2, align 4
  %173 = load i32, i32* %1, align 4
  %174 = icmp slt i32 %172, %173
  br i1 %174, label %175, label %184

175:                                              ; preds = %171
  %176 = load i32, i32* %2, align 4
  %177 = sext i32 %176 to i64
  %178 = getelementptr inbounds [10 x [100 x i8]], [10 x [100 x i8]]* %5, i64 0, i64 %177
  %179 = getelementptr inbounds [100 x i8], [100 x i8]* %178, i64 0, i64 0
  %180 = call i32 (i8*, ...) @printf(i8* getelementptr inbounds ([4 x i8], [4 x i8]* @.str.1, i64 0, i64 0), i8* %179)
  br label %181

181:                                              ; preds = %175
  %182 = load i32, i32* %2, align 4
  %183 = add nsw i32 %182, 1
  store i32 %183, i32* %2, align 4
  br label %171

184:                                              ; preds = %171
  ret void
}

; Function Attrs: argmemonly nounwind willreturn
declare void @llvm.memset.p0i8.i64(i8* nocapture writeonly, i8, i64, i1 immarg) #1

declare dso_local i32 @__isoc99_scanf(i8*, ...) #2

; Function Attrs: nounwind readonly
declare dso_local i64 @strlen(i8*) #3

declare dso_local i32 @printf(i8*, ...) #2


!llvm.module.flags = !{!0}
!llvm.ident = !{!1}

!0 = !{i32 1, !"wchar_size", i32 4}
!1 = !{!"clang version 10.0.0-4ubuntu1 "}
